; Function Attrs: mustprogress uwtable
define void @_ZN3gmx22write_IMDgroup_to_fileEbP10t_inputrecPK7t_stateRK10gmx_mtop_tiPK8t_filenm(i1 noundef zeroext %0, ptr noundef readonly captures(none) %1, ptr noundef %2, ptr noundef nonnull align 8 dereferenceable(768) %3, i32 noundef %4, ptr noundef %5) local_unnamed_addr #0 personality ptr @__gxx_personality_v0 {
  %7 = alloca %struct.t_atoms, align 8
  %8 = alloca %"class.std::filesystem::__cxx11::path", align 8
  %9 = alloca ptr, align 8
  call void @llvm.lifetime.start.p0(i64 72, ptr nonnull %7) #26
  br i1 %0, label %10, label %38

10:                                               ; preds = %6
  call void @_Z21gmx_mtop_global_atomsRK10gmx_mtop_t(ptr dead_on_unwind nonnull writable sret(%struct.t_atoms) align 8 %7, ptr noundef nonnull align 8 dereferenceable(768) %3)
  call void @llvm.lifetime.start.p0(i64 40, ptr nonnull %8) #26
  call void @llvm.lifetime.start.p0(i64 8, ptr nonnull %9) #26
  %11 = call noundef ptr @_Z6opt2fnPKciPK8t_filenm(ptr noundef nonnull @.str, i32 noundef %4, ptr noundef %5)
  store ptr %11, ptr %9, align 8, !tbaa !15
  call void @_ZNSt10filesystem7__cxx114pathC2IPKcS1_EERKT_NS1_6formatE(ptr noundef nonnull align 8 dereferenceable(40) %8, ptr noundef nonnull align 8 dereferenceable(8) %9, i8 noundef zeroext 2)
  %12 = getelementptr inbounds nuw i8, ptr %2, i64 416
  %13 = load ptr, ptr %12, align 8, !tbaa !17
  %14 = getelementptr inbounds nuw i8, ptr %2, i64 456
  %15 = load ptr, ptr %14, align 8, !tbaa !17
  %16 = getelementptr inbounds nuw i8, ptr %1, i64 176
  %17 = load i32, ptr %16, align 8, !tbaa !20
  %18 = getelementptr inbounds nuw i8, ptr %2, i64 52
  %19 = getelementptr inbounds nuw i8, ptr %1, i64 664
  %20 = load ptr, ptr %19, align 8, !tbaa !114
  %21 = load i32, ptr %20, align 8, !tbaa !115
  %22 = getelementptr inbounds nuw i8, ptr %20, i64 8
  %23 = load ptr, ptr %22, align 8, !tbaa !117
  invoke void @_Z22write_sto_conf_indexedRKNSt10filesystem7__cxx114pathEPKcPK7t_atomsPA3_KfSB_7PbcTypeSB_iPi(ptr noundef nonnull align 8 dereferenceable(40) %8, ptr noundef nonnull @.str.1, ptr noundef nonnull %7, ptr noundef %13, ptr noundef %15, i32 noundef %17, ptr noundef nonnull %18, i32 noundef %21, ptr noundef %23)
          to label %24 unwind label %36

24:                                               ; preds = %10
  %25 = getelementptr inbounds nuw i8, ptr %8, i64 32
  %26 = load ptr, ptr %25, align 8, !tbaa !118
  %.not.i.i.i = icmp eq ptr %26, null
  br i1 %.not.i.i.i, label %_ZNSt10filesystem7__cxx114path5_ListD2Ev.exit.i, label %27

27:                                               ; preds = %24
  call void @_ZNKSt10filesystem7__cxx114path5_List13_Impl_deleterclEPNS2_5_ImplE(ptr noundef nonnull align 8 dereferenceable(8) %25, ptr noundef nonnull %26) #26
  br label %_ZNSt10filesystem7__cxx114path5_ListD2Ev.exit.i

_ZNSt10filesystem7__cxx114path5_ListD2Ev.exit.i:  ; preds = %27, %24
  store ptr null, ptr %25, align 8, !tbaa !118
  %28 = load ptr, ptr %8, align 8, !tbaa !120
  %29 = getelementptr inbounds nuw i8, ptr %8, i64 16
  %30 = icmp eq ptr %28, %29
  br i1 %30, label %_ZNKSt7__cxx1112basic_stringIcSt11char_traitsIcESaIcEE11_M_is_localEv.exit.thread.i.i.i, label %_ZNKSt7__cxx1112basic_stringIcSt11char_traitsIcESaIcEE11_M_is_localEv.exit.i.i.i

_ZNKSt7__cxx1112basic_stringIcSt11char_traitsIcESaIcEE11_M_is_localEv.exit.thread.i.i.i: ; preds = %_ZNSt10filesystem7__cxx114path5_ListD2Ev.exit.i
  %31 = getelementptr inbounds nuw i8, ptr %8, i64 8
  %32 = load i64, ptr %31, align 8, !tbaa !123
  %33 = icmp ult i64 %32, 16
  call void @llvm.assume(i1 %33)
  br label %_ZNSt10filesystem7__cxx114pathD2Ev.exit

_ZNKSt7__cxx1112basic_stringIcSt11char_traitsIcESaIcEE11_M_is_localEv.exit.i.i.i: ; preds = %_ZNSt10filesystem7__cxx114path5_ListD2Ev.exit.i
  %34 = load i64, ptr %29, align 8, !tbaa !124
  %35 = add i64 %34, 1
  call void @_ZdlPvm(ptr noundef %28, i64 noundef %35) #25
  br label %_ZNSt10filesystem7__cxx114pathD2Ev.exit

_ZNSt10filesystem7__cxx114pathD2Ev.exit:          ; preds = %_ZNKSt7__cxx1112basic_stringIcSt11char_traitsIcESaIcEE11_M_is_localEv.exit.thread.i.i.i, %_ZNKSt7__cxx1112basic_stringIcSt11char_traitsIcESaIcEE11_M_is_localEv.exit.i.i.i
  call void @llvm.lifetime.end.p0(i64 8, ptr nonnull %9) #26
  call void @llvm.lifetime.end.p0(i64 40, ptr nonnull %8) #26
  br label %38

36:                                               ; preds = %10
  %37 = landingpad { ptr, i32 }
          cleanup
  call void @_ZNSt10filesystem7__cxx114pathD2Ev(ptr noundef nonnull align 8 dereferenceable(40) %8) #26
  call void @llvm.lifetime.end.p0(i64 8, ptr nonnull %9) #26
  call void @llvm.lifetime.end.p0(i64 40, ptr nonnull %8) #26
  call void @llvm.lifetime.end.p0(i64 72, ptr nonnull %7) #26
  resume { ptr, i32 } %37

38:                                               ; preds = %_ZNSt10filesystem7__cxx114pathD2Ev.exit, %6
  call void @llvm.lifetime.end.p0(i64 72, ptr nonnull %7) #26
  ret void
}